target datalayout = "e-m:e-p270:32:32-p271:32:32-p272:64:64-i64:64-i128:128-f80:128-n8:16:32:64-S128"
target triple = "x86_64-unknown-linux-gnu"

%class.params_ref = type { ptr }
%class.symbol = type { ptr }
%class.params = type <{ %class.svector.0, %"struct.std::atomic", [4 x i8] }>
%class.svector.0 = type { %class.vector.1 }
%class.vector.1 = type { ptr }
%"struct.std::atomic" = type { %"struct.std::__atomic_base" }
%"struct.std::__atomic_base" = type { i32 }
%"struct.std::pair" = type { %class.symbol, %"struct.params::value" }
%"struct.params::value" = type { i32, %union.anon.2 }
%union.anon.2 = type { double }

; Function Attrs: mustprogress nounwind uwtable
define linkonce_odr hidden noundef i32 @_ZNK6vectorISt4pairI6symbolN6params5valueEELb0EjE4sizeEv(ptr noundef nonnull align 8 dereferenceable(8) %this) #4 comdat align 2 {
entry:
  %retval = alloca i32, align 4
  %this.addr = alloca ptr, align 8
  store ptr %this, ptr %this.addr, align 8
  %this1 = load ptr, ptr %this.addr, align 8
  %m_data = getelementptr inbounds %class.vector.1, ptr %this1, i32 0, i32 0
  %0 = load ptr, ptr %m_data, align 8
  %cmp = icmp eq ptr %0, null
  br i1 %cmp, label %if.then, label %if.end

if.then:                                          ; preds = %entry
  store i32 0, ptr %retval, align 4
  br label %return

if.end:                                           ; preds = %entry
  %m_data2 = getelementptr inbounds %class.vector.1, ptr %this1, i32 0, i32 0
  %1 = load ptr, ptr %m_data2, align 8
  %arrayidx = getelementptr inbounds i32, ptr %1, i64 -1
  %2 = load i32, ptr %arrayidx, align 4
  store i32 %2, ptr %retval, align 4
  br label %return

return:                                           ; preds = %if.end, %if.then
  %3 = load i32, ptr %retval, align 4
  ret i32 %3
}

; Function Attrs: mustprogress nounwind uwtable
define linkonce_odr hidden noundef zeroext i1 @_ZNK6vectorISt4pairI6symbolN6params5valueEELb0EjE5emptyEv(ptr noundef nonnull align 8 dereferenceable(8) %this) #4 comdat align 2 {
entry:
  %this.addr = alloca ptr, align 8
  store ptr %this, ptr %this.addr, align 8
  %this1 = load ptr, ptr %this.addr, align 8
  %m_data = getelementptr inbounds %class.vector.1, ptr %this1, i32 0, i32 0
  %0 = load ptr, ptr %m_data, align 8
  %cmp = icmp eq ptr %0, null
  br i1 %cmp, label %lor.end, label %lor.rhs

lor.rhs:                                          ; preds = %entry
  %m_data2 = getelementptr inbounds %class.vector.1, ptr %this1, i32 0, i32 0
  %1 = load ptr, ptr %m_data2, align 8
  %arrayidx = getelementptr inbounds i32, ptr %1, i64 -1
  %2 = load i32, ptr %arrayidx, align 4
  %cmp3 = icmp eq i32 %2, 0
  br label %lor.end

lor.end:                                          ; preds = %lor.rhs, %entry
  %3 = phi i1 [ true, %entry ], [ %cmp3, %lor.rhs ]
  ret i1 %3
}

; Function Attrs: mustprogress nounwind uwtable
define linkonce_odr hidden noundef zeroext i1 @_ZeqRK6symbolS1_(ptr noundef nonnull align 8 dereferenceable(8) %s1, ptr noundef nonnull align 8 dereferenceable(8) %s2) #4 comdat {
entry:
  %s1.addr = alloca ptr, align 8
  %s2.addr = alloca ptr, align 8
  store ptr %s1, ptr %s1.addr, align 8
  store ptr %s2, ptr %s2.addr, align 8
  %0 = load ptr, ptr %s1.addr, align 8
  %m_data = getelementptr inbounds %class.symbol, ptr %0, i32 0, i32 0
  %1 = load ptr, ptr %m_data, align 8
  %2 = load ptr, ptr %s2.addr, align 8
  %m_data1 = getelementptr inbounds %class.symbol, ptr %2, i32 0, i32 0
  %3 = load ptr, ptr %m_data1, align 8
  %cmp = icmp eq ptr %1, %3
  ret i1 %cmp
}

; Function Attrs: mustprogress nounwind uwtable
define linkonce_odr hidden noundef ptr @_ZNK6vectorISt4pairI6symbolN6params5valueEELb0EjE3endEv(ptr noundef nonnull align 8 dereferenceable(8) %this) #4 comdat align 2 {
entry:
  %this.addr = alloca ptr, align 8
  store ptr %this, ptr %this.addr, align 8
  %this1 = load ptr, ptr %this.addr, align 8
  %m_data = getelementptr inbounds %class.vector.1, ptr %this1, i32 0, i32 0
  %0 = load ptr, ptr %m_data, align 8
  %call = call noundef i32 @_ZNK6vectorISt4pairI6symbolN6params5valueEELb0EjE4sizeEv(ptr noundef nonnull align 8 dereferenceable(8) %this1)
  %idx.ext = zext i32 %call to i64
  %add.ptr = getelementptr inbounds %"struct.std::pair", ptr %0, i64 %idx.ext
  ret ptr %add.ptr
}

; Function Attrs: mustprogress nounwind uwtable
define linkonce_odr hidden noundef ptr @_ZNK6vectorISt4pairI6symbolN6params5valueEELb0EjE5beginEv(ptr noundef nonnull align 8 dereferenceable(8) %this) #4 comdat align 2 {
entry:
  %this.addr = alloca ptr, align 8
  store ptr %this, ptr %this.addr, align 8
  %this1 = load ptr, ptr %this.addr, align 8
  %m_data = getelementptr inbounds %class.vector.1, ptr %this1, i32 0, i32 0
  %0 = load ptr, ptr %m_data, align 8
  ret ptr %0
}

; Function Attrs: mustprogress uwtable
define linkonce_odr hidden noundef zeroext i1 @_ZNK6params5emptyEv(ptr noundef nonnull align 8 dereferenceable(12) %this) #5 comdat align 2 {
entry:
  %this.addr = alloca ptr, align 8
  store ptr %this, ptr %this.addr, align 8
  %this1 = load ptr, ptr %this.addr, align 8
  %m_entries = getelementptr inbounds %class.params, ptr %this1, i32 0, i32 0
  %call = call noundef zeroext i1 @_ZNK6vectorISt4pairI6symbolN6params5valueEELb0EjE5emptyEv(ptr noundef nonnull align 8 dereferenceable(8) %m_entries)
  ret i1 %call
}

; Function Attrs: mustprogress uwtable
define hidden noundef ptr @_ZNK6params7get_strERK6symbolPKc(ptr noundef nonnull align 8 dereferenceable(12) %this, ptr noundef nonnull align 8 dereferenceable(8) %k, ptr noundef %_default) #5 align 2 {
entry:
  %retval = alloca ptr, align 8
  %this.addr = alloca ptr, align 8
  %k.addr = alloca ptr, align 8
  %_default.addr = alloca ptr, align 8
  %it = alloca ptr, align 8
  %end = alloca ptr, align 8
  store ptr %this, ptr %this.addr, align 8
  store ptr %k, ptr %k.addr, align 8
  store ptr %_default, ptr %_default.addr, align 8
  %this1 = load ptr, ptr %this.addr, align 8
  %call = call noundef zeroext i1 @_ZNK6params5emptyEv(ptr noundef nonnull align 8 dereferenceable(12) %this1)
  br i1 %call, label %if.then, label %if.end

if.then:                                          ; preds = %entry
  %0 = load ptr, ptr %_default.addr, align 8
  store ptr %0, ptr %retval, align 8
  br label %return

if.end:                                           ; preds = %entry
  %m_entries = getelementptr inbounds %class.params, ptr %this1, i32 0, i32 0
  %call2 = call noundef ptr @_ZNK6vectorISt4pairI6symbolN6params5valueEELb0EjE5beginEv(ptr noundef nonnull align 8 dereferenceable(8) %m_entries)
  store ptr %call2, ptr %it, align 8
  %m_entries3 = getelementptr inbounds %class.params, ptr %this1, i32 0, i32 0
  %call4 = call noundef ptr @_ZNK6vectorISt4pairI6symbolN6params5valueEELb0EjE3endEv(ptr noundef nonnull align 8 dereferenceable(8) %m_entries3)
  store ptr %call4, ptr %end, align 8
  br label %for.cond

for.cond:                                         ; preds = %for.inc, %if.end
  %1 = load ptr, ptr %it, align 8
  %2 = load ptr, ptr %end, align 8
  %cmp = icmp ne ptr %1, %2
  br i1 %cmp, label %for.body, label %for.end

for.body:                                         ; preds = %for.cond
  %3 = load ptr, ptr %it, align 8
  %first = getelementptr inbounds %"struct.std::pair", ptr %3, i32 0, i32 0
  %4 = load ptr, ptr %k.addr, align 8
  %call5 = call noundef zeroext i1 @_ZeqRK6symbolS1_(ptr noundef nonnull align 8 dereferenceable(8) %first, ptr noundef nonnull align 8 dereferenceable(8) %4)
  br i1 %call5, label %land.lhs.true, label %if.end9

land.lhs.true:                                    ; preds = %for.body
  %5 = load ptr, ptr %it, align 8
  %second = getelementptr inbounds %"struct.std::pair", ptr %5, i32 0, i32 1
  %m_kind = getelementptr inbounds %"struct.params::value", ptr %second, i32 0, i32 0
  %6 = load i32, ptr %m_kind, align 8
  %cmp6 = icmp eq i32 %6, 5
  br i1 %cmp6, label %if.then7, label %if.end9

if.then7:                                         ; preds = %land.lhs.true
  %7 = load ptr, ptr %it, align 8
  %second8 = getelementptr inbounds %"struct.std::pair", ptr %7, i32 0, i32 1
  %8 = getelementptr inbounds %"struct.params::value", ptr %second8, i32 0, i32 1
  %9 = load ptr, ptr %8, align 8
  store ptr %9, ptr %retval, align 8
  br label %return

if.end9:                                          ; preds = %land.lhs.true, %for.body
  br label %for.inc

for.inc:                                          ; preds = %if.end9
  %10 = load ptr, ptr %it, align 8
  %incdec.ptr = getelementptr inbounds %"struct.std::pair", ptr %10, i32 1
  store ptr %incdec.ptr, ptr %it, align 8
  br label %for.cond, !llvm.loop !20

for.end:                                          ; preds = %for.cond
  %11 = load ptr, ptr %_default.addr, align 8
  store ptr %11, ptr %retval, align 8
  br label %return

return:                                           ; preds = %for.end, %if.then7, %if.then
  %12 = load ptr, ptr %retval, align 8
  ret ptr %12
}

; Function Attrs: mustprogress uwtable
define hidden noundef ptr @_ZNK10params_ref7get_strERK6symbolPKc(ptr noundef nonnull align 8 dereferenceable(8) %this, ptr noundef nonnull align 8 dereferenceable(8) %k, ptr noundef %_default) #5 align 2 {
entry:
  %this.addr = alloca ptr, align 8
  %k.addr = alloca ptr, align 8
  %_default.addr = alloca ptr, align 8
  store ptr %this, ptr %this.addr, align 8
  store ptr %k, ptr %k.addr, align 8
  store ptr %_default, ptr %_default.addr, align 8
  %this1 = load ptr, ptr %this.addr, align 8
  %m_params = getelementptr inbounds %class.params_ref, ptr %this1, i32 0, i32 0
  %0 = load ptr, ptr %m_params, align 8
  %tobool = icmp ne ptr %0, null
  br i1 %tobool, label %cond.true, label %cond.false

cond.true:                                        ; preds = %entry
  %m_params2 = getelementptr inbounds %class.params_ref, ptr %this1, i32 0, i32 0
  %1 = load ptr, ptr %m_params2, align 8
  %2 = load ptr, ptr %k.addr, align 8
  %3 = load ptr, ptr %_default.addr, align 8
  %call = call noundef ptr @_ZNK6params7get_strERK6symbolPKc(ptr noundef nonnull align 8 dereferenceable(12) %1, ptr noundef nonnull align 8 dereferenceable(8) %2, ptr noundef %3)
  br label %cond.end

cond.false:                                       ; preds = %entry
  %4 = load ptr, ptr %_default.addr, align 8
  br label %cond.end

cond.end:                                         ; preds = %cond.false, %cond.true
  %cond = phi ptr [ %call, %cond.true ], [ %4, %cond.false ]
  ret ptr %cond
}