; Function Attrs: mustprogress nofree norecurse nosync nounwind willreturn memory(read, inaccessiblemem: none) uwtable
define hidden noundef ptr @_ZNK10params_ref7get_strERK6symbolPKc(ptr nocapture noundef nonnull readonly align 8 dereferenceable(8) %this, ptr nocapture noundef nonnull readonly align 8 dereferenceable(8) %k, ptr noundef readnone %_default) local_unnamed_addr #7 align 2 {
entry:
  %0 = load ptr, ptr %this, align 8
  %tobool.not = icmp eq ptr %0, null
  br i1 %tobool.not, label %cond.end, label %cond.true

cond.true:                                        ; preds = %entry
  %1 = load ptr, ptr %0, align 8
  %cmp.i.i.i = icmp eq ptr %1, null
  br i1 %cmp.i.i.i, label %cond.end, label %_ZNK6params5emptyEv.exit.i

_ZNK6params5emptyEv.exit.i:                       ; preds = %cond.true
  %arrayidx.i.i.i = getelementptr inbounds i8, ptr %1, i64 -4
  %2 = load i32, ptr %arrayidx.i.i.i, align 4
  %cmp3.i.i.i = icmp eq i32 %2, 0
  br i1 %cmp3.i.i.i, label %cond.end, label %for.body.lr.ph.i

for.body.lr.ph.i:                                 ; preds = %_ZNK6params5emptyEv.exit.i
  %3 = zext i32 %2 to i64
  %add.ptr.i.i = getelementptr inbounds %"struct.std::pair", ptr %1, i64 %3
  %4 = load ptr, ptr %k, align 8
  br label %for.body.i

for.body.i:                                       ; preds = %for.inc.i, %for.body.lr.ph.i
  %it.010.i = phi ptr [ %1, %for.body.lr.ph.i ], [ %incdec.ptr.i, %for.inc.i ]
  %5 = load ptr, ptr %it.010.i, align 8
  %cmp.i.i = icmp eq ptr %5, %4
  br i1 %cmp.i.i, label %land.lhs.true.i, label %for.inc.i

land.lhs.true.i:                                  ; preds = %for.body.i
  %second.i = getelementptr inbounds i8, ptr %it.010.i, i64 8
  %6 = load i32, ptr %second.i, align 8
  %cmp6.i = icmp eq i32 %6, 5
  br i1 %cmp6.i, label %if.then7.i, label %for.inc.i

if.then7.i:                                       ; preds = %land.lhs.true.i
  %7 = getelementptr inbounds i8, ptr %it.010.i, i64 16
  %8 = load ptr, ptr %7, align 8
  br label %cond.end

for.inc.i:                                        ; preds = %land.lhs.true.i, %for.body.i
  %incdec.ptr.i = getelementptr inbounds i8, ptr %it.010.i, i64 24
  %cmp.not.i = icmp eq ptr %incdec.ptr.i, %add.ptr.i.i
  br i1 %cmp.not.i, label %cond.end, label %for.body.i, !llvm.loop !25

cond.end:                                         ; preds = %for.inc.i, %if.then7.i, %_ZNK6params5emptyEv.exit.i, %cond.true, %entry
  %cond = phi ptr [ %_default, %entry ], [ %8, %if.then7.i ], [ %_default, %_ZNK6params5emptyEv.exit.i ], [ %_default, %cond.true ], [ %_default, %for.inc.i ]
  ret ptr %cond
}